; Function Attrs: nounwind uwtable
define internal range(i32 0, 2) i32 @pkey_ecx_keygen(ptr noundef readonly captures(none) %0, ptr noundef %1) #0 {
  %3 = getelementptr inbounds nuw i8, ptr %0, i64 120
  %4 = load ptr, ptr %3, align 8, !tbaa !48
  %5 = load i32, ptr %4, align 8, !tbaa !49
  %6 = tail call ptr @ossl_ecx_key_op(ptr noundef null, ptr noundef null, i32 noundef 0, i32 noundef %5, i32 noundef 2, ptr noundef null, ptr noundef null) #8
  %.not = icmp eq ptr %6, null
  br i1 %.not, label %11, label %7

7:                                                ; preds = %2
  %8 = load ptr, ptr %3, align 8, !tbaa !48
  %9 = load i32, ptr %8, align 8, !tbaa !49
  %10 = tail call i32 @EVP_PKEY_assign(ptr noundef %1, i32 noundef %9, ptr noundef nonnull %6) #8
  br label %11

11:                                               ; preds = %2, %7
  %.0 = phi i32 [ 1, %7 ], [ 0, %2 ]
  ret i32 %.0
}